; ModuleID = '49/1020.c'
source_filename = "49/1020.c"
target datalayout = "e-m:e-p270:32:32-p271:32:32-p272:64:64-i64:64-f80:128-n8:16:32:64-S128"
target triple = "x86_64-pc-linux-gnu"

@.str = private unnamed_addr constant [3 x i8] c"%c\00", align 1
@.str.1 = private unnamed_addr constant [2 x i8] c"\0A\00", align 1

; Function Attrs: noinline nounwind uwtable
define dso_local i32 @main() #0 {
  %1 = alloca i32, align 4
  %2 = alloca i32, align 4
  %3 = alloca i32, align 4
  %4 = alloca i32, align 4
  %5 = alloca i32, align 4
  %6 = alloca [500 x i8], align 16
  %7 = alloca [500 x i8], align 16
  store i32 0, i32* %1, align 4
  %8 = getelementptr inbounds [500 x i8], [500 x i8]* %6, i64 0, i64 0
  %9 = call i32 (i8*, ...) bitcast (i32 (...)* @gets to i32 (i8*, ...)*)(i8* %8)
  %10 = getelementptr inbounds [500 x i8], [500 x i8]* %6, i64 0, i64 0
  %11 = call i64 @strlen(i8* %10) #3
  %12 = trunc i64 %11 to i32
  store i32 %12, i32* %4, align 4
  store i32 0, i32* %3, align 4
  br label %13

13:                                               ; preds = %90, %0
  %14 = load i32, i32* %3, align 4
  %15 = load i32, i32* %4, align 4
  %16 = icmp slt i32 %14, %15
  br i1 %16, label %17, label %93

17:                                               ; preds = %13
  store i32 0, i32* %2, align 4
  br label %18

18:                                               ; preds = %86, %17
  %19 = load i32, i32* %2, align 4
  %20 = load i32, i32* %4, align 4
  %21 = icmp slt i32 %19, %20
  br i1 %21, label %22, label %89

22:                                               ; preds = %18
  %23 = load i32, i32* %2, align 4
  %24 = load i32, i32* %3, align 4
  %25 = icmp sge i32 %23, %24
  br i1 %25, label %26, label %85

26:                                               ; preds = %22
  %27 = load i32, i32* %2, align 4
  %28 = load i32, i32* %3, align 4
  %29 = sub nsw i32 %27, %28
  %30 = sext i32 %29 to i64
  %31 = getelementptr inbounds [500 x i8], [500 x i8]* %6, i64 0, i64 %30
  %32 = load i8, i8* %31, align 1
  %33 = sext i8 %32 to i32
  %34 = load i32, i32* %2, align 4
  %35 = load i32, i32* %3, align 4
  %36 = add nsw i32 %34, %35
  %37 = add nsw i32 %36, 1
  %38 = sext i32 %37 to i64
  %39 = getelementptr inbounds [500 x i8], [500 x i8]* %6, i64 0, i64 %38
  %40 = load i8, i8* %39, align 1
  %41 = sext i8 %40 to i32
  %42 = icmp eq i32 %33, %41
  br i1 %42, label %43, label %83

43:                                               ; preds = %26
  %44 = load i32, i32* %2, align 4
  %45 = load i32, i32* %3, align 4
  %46 = sub nsw i32 %44, %45
  %47 = add nsw i32 %46, 1
  %48 = sext i32 %47 to i64
  %49 = getelementptr inbounds [500 x i8], [500 x i8]* %6, i64 0, i64 %48
  %50 = load i8, i8* %49, align 1
  %51 = sext i8 %50 to i32
  %52 = load i32, i32* %2, align 4
  %53 = load i32, i32* %3, align 4
  %54 = add nsw i32 %52, %53
  %55 = sext i32 %54 to i64
  %56 = getelementptr inbounds [500 x i8], [500 x i8]* %6, i64 0, i64 %55
  %57 = load i8, i8* %56, align 1
  %58 = sext i8 %57 to i32
  %59 = icmp eq i32 %51, %58
  br i1 %59, label %60, label %83

60:                                               ; preds = %43
  store i32 0, i32* %5, align 4
  br label %61

61:                                               ; preds = %78, %60
  %62 = load i32, i32* %5, align 4
  %63 = load i32, i32* %3, align 4
  %64 = mul nsw i32 2, %63
  %65 = add nsw i32 %64, 1
  %66 = icmp sle i32 %62, %65
  br i1 %66, label %67, label %81

67:                                               ; preds = %61
  %68 = load i32, i32* %2, align 4
  %69 = load i32, i32* %3, align 4
  %70 = sub nsw i32 %68, %69
  %71 = load i32, i32* %5, align 4
  %72 = add nsw i32 %70, %71
  %73 = sext i32 %72 to i64
  %74 = getelementptr inbounds [500 x i8], [500 x i8]* %6, i64 0, i64 %73
  %75 = load i8, i8* %74, align 1
  %76 = sext i8 %75 to i32
  %77 = call i32 (i8*, ...) @printf(i8* getelementptr inbounds ([3 x i8], [3 x i8]* @.str, i64 0, i64 0), i32 %76)
  br label %78

78:                                               ; preds = %67
  %79 = load i32, i32* %5, align 4
  %80 = add nsw i32 %79, 1
  store i32 %80, i32* %5, align 4
  br label %61

81:                                               ; preds = %61
  %82 = call i32 (i8*, ...) @printf(i8* getelementptr inbounds ([2 x i8], [2 x i8]* @.str.1, i64 0, i64 0))
  br label %84

83:                                               ; preds = %43, %26
  br label %86

84:                                               ; preds = %81
  br label %85

85:                                               ; preds = %84, %22
  br label %86

86:                                               ; preds = %85, %83
  %87 = load i32, i32* %2, align 4
  %88 = add nsw i32 %87, 1
  store i32 %88, i32* %2, align 4
  br label %18

89:                                               ; preds = %18
  br label %90

90:                                               ; preds = %89
  %91 = load i32, i32* %3, align 4
  %92 = add nsw i32 %91, 1
  store i32 %92, i32* %3, align 4
  br label %13

93:                                               ; preds = %13
  ret i32 0
}

declare dso_local i32 @gets(...) #1

; Function Attrs: nounwind readonly
declare dso_local i64 @strlen(i8*) #2

declare dso_local i32 @printf(i8*, ...) #1


!llvm.module.flags = !{!0}
!llvm.ident = !{!1}

!0 = !{i32 1, !"wchar_size", i32 4}
!1 = !{!"clang version 10.0.0-4ubuntu1 "}
