; ModuleID = 'source-C-CXX/48/1020.c'
source_filename = "source-C-CXX/48/1020.c"
target datalayout = "e-m:e-p270:32:32-p271:32:32-p272:64:64-i64:64-f80:128-n8:16:32:64-S128"
target triple = "x86_64-pc-linux-gnu"

; Function Attrs: nounwind sspstrong uwtable
define dso_local i32 @main() local_unnamed_addr #0 {
  %1 = alloca [500 x i8], align 16
  %2 = getelementptr inbounds [500 x i8], [500 x i8]* %1, i64 0, i64 0
  call void @llvm.lifetime.start.p0i8(i64 500, i8* nonnull %2) #5
  %3 = call i32 (i8*, ...) bitcast (i32 (...)* @gets to i32 (i8*, ...)*)(i8* nonnull %2) #5
  %4 = call i64 @strlen(i8* noundef nonnull %2) #6
  %5 = trunc i64 %4 to i32
  %6 = icmp sgt i32 %5, 0
  br i1 %6, label %7, label %51

7:                                                ; preds = %0
  %8 = and i64 %4, 4294967295
  br label %9

9:                                                ; preds = %7, %47
  %10 = phi i64 [ 0, %7 ], [ %48, %47 ]
  %11 = phi i64 [ 2, %7 ], [ %49, %47 ]
  br label %12

12:                                               ; preds = %9, %44
  %13 = phi i64 [ 0, %9 ], [ %45, %44 ]
  %14 = icmp ult i64 %13, %10
  br i1 %14, label %44, label %15

15:                                               ; preds = %12
  %16 = sub nsw i64 %13, %10
  %17 = getelementptr inbounds [500 x i8], [500 x i8]* %1, i64 0, i64 %16
  %18 = load i8, i8* %17, align 1, !tbaa !5
  %19 = add nuw nsw i64 %13, %10
  %20 = add nuw i64 %19, 1
  %21 = and i64 %20, 4294967295
  %22 = getelementptr inbounds [500 x i8], [500 x i8]* %1, i64 0, i64 %21
  %23 = load i8, i8* %22, align 1, !tbaa !5
  %24 = icmp eq i8 %18, %23
  br i1 %24, label %25, label %44

25:                                               ; preds = %15
  %26 = add nsw i64 %16, 1
  %27 = getelementptr inbounds [500 x i8], [500 x i8]* %1, i64 0, i64 %26
  %28 = load i8, i8* %27, align 1, !tbaa !5
  %29 = and i64 %19, 4294967295
  %30 = getelementptr inbounds [500 x i8], [500 x i8]* %1, i64 0, i64 %29
  %31 = load i8, i8* %30, align 1, !tbaa !5
  %32 = icmp eq i8 %28, %31
  br i1 %32, label %33, label %44

33:                                               ; preds = %25, %33
  %34 = phi i64 [ %40, %33 ], [ 0, %25 ]
  %35 = add nsw i64 %34, %16
  %36 = getelementptr inbounds [500 x i8], [500 x i8]* %1, i64 0, i64 %35
  %37 = load i8, i8* %36, align 1, !tbaa !5
  %38 = sext i8 %37 to i32
  %39 = call i32 @putchar(i32 %38)
  %40 = add nuw nsw i64 %34, 1
  %41 = icmp eq i64 %40, %11
  br i1 %41, label %42, label %33, !llvm.loop !8

42:                                               ; preds = %33
  %43 = call i32 @putchar(i32 10)
  br label %44

44:                                               ; preds = %42, %25, %15, %12
  %45 = add nuw nsw i64 %13, 1
  %46 = icmp eq i64 %45, %8
  br i1 %46, label %47, label %12, !llvm.loop !10

47:                                               ; preds = %44
  %48 = add nuw nsw i64 %10, 1
  %49 = add nuw nsw i64 %11, 2
  %50 = icmp eq i64 %48, %8
  br i1 %50, label %51, label %9, !llvm.loop !11

51:                                               ; preds = %47, %0
  call void @llvm.lifetime.end.p0i8(i64 500, i8* nonnull %2) #5
  ret i32 0
}

; Function Attrs: argmemonly mustprogress nofree nosync nounwind willreturn
declare void @llvm.lifetime.start.p0i8(i64 immarg, i8* nocapture) #1

declare i32 @gets(...) local_unnamed_addr #2

; Function Attrs: argmemonly mustprogress nofree nounwind readonly willreturn
declare i64 @strlen(i8* nocapture) local_unnamed_addr #3

; Function Attrs: argmemonly mustprogress nofree nosync nounwind willreturn
declare void @llvm.lifetime.end.p0i8(i64 immarg, i8* nocapture) #1

; Function Attrs: nofree nounwind
declare noundef i32 @putchar(i32 noundef) local_unnamed_addr #4


!llvm.module.flags = !{!0, !1, !2, !3}
!llvm.ident = !{!4}

!0 = !{i32 1, !"wchar_size", i32 4}
!1 = !{i32 7, !"PIC Level", i32 2}
!2 = !{i32 7, !"PIE Level", i32 2}
!3 = !{i32 7, !"uwtable", i32 1}
!4 = !{!"clang version 13.0.0"}
!5 = !{!6, !6, i64 0}
!6 = !{!"omnipotent char", !7, i64 0}
!7 = !{!"Simple C/C++ TBAA"}
!8 = distinct !{!8, !9}
!9 = !{!"llvm.loop.mustprogress"}
!10 = distinct !{!10, !9}
!11 = distinct !{!11, !9}
